target datalayout = "e-m:e-p270:32:32-p271:32:32-p272:64:64-i64:64-i128:128-f80:128-n8:16:32:64-S128"
target triple = "x86_64-pc-linux-gnu"

@.str.13 = private unnamed_addr constant [7 x i32] [i32 63, i32 42, i32 60, i32 62, i32 124, i32 34, i32 0], align 4

; Function Attrs: mustprogress nounwind uwtable
define noundef zeroext i1 @_Z9IsPathDivi(i32 noundef %0) #2 {
  %2 = alloca i32, align 4
  store i32 %0, ptr %2, align 4
  %3 = load i32, ptr %2, align 4
  %4 = icmp eq i32 %3, 47
  ret i1 %4
}

; Function Attrs: mustprogress nounwind uwtable
define noundef zeroext i1 @_Z12IsNameUsablePKw(ptr noundef %0) #2 {
  %2 = alloca i1, align 1
  %3 = alloca ptr, align 8
  %4 = alloca ptr, align 8
  store ptr %0, ptr %3, align 8
  %5 = load ptr, ptr %3, align 8
  %6 = call ptr @wcschr(ptr noundef %5, i32 noundef signext 58) #6
  %7 = icmp ne ptr %6, null
  br i1 %7, label %8, label %9

8:                                                ; preds = %1
  store i1 false, ptr %2, align 1
  br label %48

9:                                                ; preds = %1
  %10 = load ptr, ptr %3, align 8
  store ptr %10, ptr %4, align 8
  br label %11

11:                                               ; preds = %35, %9
  %12 = load ptr, ptr %4, align 8
  %13 = load i32, ptr %12, align 4
  %14 = icmp ne i32 %13, 0
  br i1 %14, label %15, label %38

15:                                               ; preds = %11
  %16 = load ptr, ptr %4, align 8
  %17 = load i32, ptr %16, align 4
  %18 = icmp ult i32 %17, 32
  br i1 %18, label %19, label %20

19:                                               ; preds = %15
  store i1 false, ptr %2, align 1
  br label %48

20:                                               ; preds = %15
  %21 = load ptr, ptr %4, align 8
  %22 = load i32, ptr %21, align 4
  %23 = icmp eq i32 %22, 32
  br i1 %23, label %28, label %24

24:                                               ; preds = %20
  %25 = load ptr, ptr %4, align 8
  %26 = load i32, ptr %25, align 4
  %27 = icmp eq i32 %26, 46
  br i1 %27, label %28, label %34

28:                                               ; preds = %24, %20
  %29 = load ptr, ptr %4, align 8
  %30 = getelementptr inbounds i32, ptr %29, i64 1
  %31 = load i32, ptr %30, align 4
  %32 = call noundef zeroext i1 @_Z9IsPathDivi(i32 noundef %31)
  br i1 %32, label %33, label %34

33:                                               ; preds = %28
  store i1 false, ptr %2, align 1
  br label %48

34:                                               ; preds = %28, %24
  br label %35

35:                                               ; preds = %34
  %36 = load ptr, ptr %4, align 8
  %37 = getelementptr inbounds i32, ptr %36, i32 1
  store ptr %37, ptr %4, align 8
  br label %11, !llvm.loop !17

38:                                               ; preds = %11
  %39 = load ptr, ptr %3, align 8
  %40 = load i32, ptr %39, align 4
  %41 = icmp ne i32 %40, 0
  br i1 %41, label %42, label %46

42:                                               ; preds = %38
  %43 = load ptr, ptr %3, align 8
  %44 = call ptr @wcspbrk(ptr noundef %43, ptr noundef @.str.13) #6
  %45 = icmp eq ptr %44, null
  br label %46

46:                                               ; preds = %42, %38
  %47 = phi i1 [ false, %38 ], [ %45, %42 ]
  store i1 %47, ptr %2, align 1
  br label %48

48:                                               ; preds = %46, %33, %19, %8
  %49 = load i1, ptr %2, align 1
  ret i1 %49
}