; Function Attrs: mustprogress nofree nounwind willreturn memory(read) uwtable
define noundef zeroext i1 @_Z12IsNameUsablePKw(ptr noundef readonly %0) local_unnamed_addr #5 {
  %2 = tail call ptr @wcschr(ptr noundef %0, i32 noundef signext 58) #18
  %.not = icmp eq ptr %2, null
  br i1 %.not, label %.preheader, label %.loopexit

.preheader:                                       ; preds = %1
  %3 = load i32, ptr %0, align 4
  %.not1315 = icmp eq i32 %3, 0
  br i1 %.not1315, label %.loopexit, label %.lr.ph

.lr.ph:                                           ; preds = %.preheader, %11
  %4 = phi i32 [ %12, %11 ], [ %3, %.preheader ]
  %.016 = phi ptr [ %13, %11 ], [ %0, %.preheader ]
  %5 = icmp ult i32 %4, 32
  br i1 %5, label %.loopexit, label %6

6:                                                ; preds = %.lr.ph
  switch i32 %4, label %._crit_edge17 [
    i32 32, label %7
    i32 46, label %7
  ]

._crit_edge17:                                    ; preds = %6
  %.phi.trans.insert = getelementptr inbounds nuw i8, ptr %.016, i64 4
  %.pre = load i32, ptr %.phi.trans.insert, align 4
  br label %11

7:                                                ; preds = %6, %6
  %8 = getelementptr inbounds nuw i8, ptr %.016, i64 4
  %9 = load i32, ptr %8, align 4
  %10 = icmp eq i32 %9, 47
  br i1 %10, label %.loopexit, label %11

11:                                               ; preds = %._crit_edge17, %7
  %12 = phi i32 [ %.pre, %._crit_edge17 ], [ %9, %7 ]
  %13 = getelementptr inbounds nuw i8, ptr %.016, i64 4
  %.not13 = icmp eq i32 %12, 0
  br i1 %.not13, label %._crit_edge, label %.lr.ph, !llvm.loop !17

._crit_edge:                                      ; preds = %11
  %14 = tail call ptr @wcspbrk(ptr noundef nonnull %0, ptr noundef nonnull @.str.13) #18
  %15 = icmp eq ptr %14, null
  br label %.loopexit

.loopexit:                                        ; preds = %7, %.lr.ph, %.preheader, %._crit_edge, %1
  %.011 = phi i1 [ false, %1 ], [ %15, %._crit_edge ], [ false, %.preheader ], [ false, %.lr.ph ], [ false, %7 ]
  ret i1 %.011
}